target datalayout = "e-m:e-p270:32:32-p271:32:32-p272:64:64-i64:64-i128:128-f80:128-n8:16:32:64-S128"
target triple = "x86_64-pc-linux-gnu"

%struct.DdManager = type { %struct.DdNode, ptr, ptr, ptr, ptr, ptr, ptr, ptr, i32, i32, double, double, double, i32, i32, i32, i32, i32, i32, ptr, ptr, %struct.DdSubtable, i32, i32, i32, i32, i32, i32, i32, double, i32, i32, i32, ptr, i64, double, i32, ptr, ptr, ptr, ptr, ptr, ptr, ptr, i32, ptr, ptr, ptr, ptr, ptr, ptr, i32, i32, i32, double, i32, i32, i32, i32, double, double, i32, i32, i32, i32, i32, i32, i32, i32, i32, ptr, ptr, i32, i32, i32, i32, i32, i32, ptr, ptr, ptr, ptr, ptr, ptr, ptr, ptr, i32, i64, i64, i64, i32, i64, i64, double, double, double, double, double, double, i32, ptr, ptr, i64 }
%struct.DdNode = type { i32, i32, ptr, %union.anon, i64 }
%union.anon = type { %struct.DdChildren }
%struct.DdChildren = type { ptr, ptr }
%struct.DdSubtable = type { ptr, i32, i32, i32, i32, i32, i32, i32, i32, i32, i32, i32 }

@cuddRand = internal global i64 0, align 8
@cuddRand2 = internal global i64 0, align 8
@shuffleSelect = internal global i64 0, align 8
@shuffleTable = internal global [64 x i64] zeroinitializer, align 16

; Function Attrs: nounwind uwtable
define void @Cudd_Srandom(i64 noundef %0) #0 {
  %2 = alloca i64, align 8
  %3 = alloca i32, align 4
  %4 = alloca i64, align 8
  store i64 %0, ptr %2, align 8
  %5 = load i64, ptr %2, align 8
  %6 = icmp slt i64 %5, 0
  br i1 %6, label %7, label %10

7:                                                ; preds = %1
  %8 = load i64, ptr %2, align 8
  %9 = sub nsw i64 0, %8
  store i64 %9, ptr @cuddRand, align 8
  br label %17

10:                                               ; preds = %1
  %11 = load i64, ptr %2, align 8
  %12 = icmp eq i64 %11, 0
  br i1 %12, label %13, label %14

13:                                               ; preds = %10
  store i64 1, ptr @cuddRand, align 8
  br label %16

14:                                               ; preds = %10
  %15 = load i64, ptr %2, align 8
  store i64 %15, ptr @cuddRand, align 8
  br label %16

16:                                               ; preds = %14, %13
  br label %17

17:                                               ; preds = %16, %7
  %18 = load i64, ptr @cuddRand, align 8
  store i64 %18, ptr @cuddRand2, align 8
  store i32 0, ptr %3, align 4
  br label %19

19:                                               ; preds = %45, %17
  %20 = load i32, ptr %3, align 4
  %21 = icmp slt i32 %20, 75
  br i1 %21, label %22, label %48

22:                                               ; preds = %19
  %23 = load i64, ptr @cuddRand, align 8
  %24 = sdiv i64 %23, 53668
  store i64 %24, ptr %4, align 8
  %25 = load i64, ptr @cuddRand, align 8
  %26 = load i64, ptr %4, align 8
  %27 = mul nsw i64 %26, 53668
  %28 = sub nsw i64 %25, %27
  %29 = mul nsw i64 40014, %28
  %30 = load i64, ptr %4, align 8
  %31 = mul nsw i64 %30, 12211
  %32 = sub nsw i64 %29, %31
  store i64 %32, ptr @cuddRand, align 8
  %33 = load i64, ptr @cuddRand, align 8
  %34 = icmp slt i64 %33, 0
  %35 = zext i1 %34 to i32
  %36 = mul nsw i32 %35, 2147483563
  %37 = sext i32 %36 to i64
  %38 = load i64, ptr @cuddRand, align 8
  %39 = add nsw i64 %38, %37
  store i64 %39, ptr @cuddRand, align 8
  %40 = load i64, ptr @cuddRand, align 8
  %41 = load i32, ptr %3, align 4
  %42 = srem i32 %41, 64
  %43 = sext i32 %42 to i64
  %44 = getelementptr inbounds [64 x i64], ptr @shuffleTable, i64 0, i64 %43
  store i64 %40, ptr %44, align 8
  br label %45

45:                                               ; preds = %22
  %46 = load i32, ptr %3, align 4
  %47 = add nsw i32 %46, 1
  store i32 %47, ptr %3, align 4
  br label %19, !llvm.loop !78

48:                                               ; preds = %19
  %49 = getelementptr inbounds [64 x i64], ptr @shuffleTable, i64 0, i64 1
  %50 = load i64, ptr %49, align 8
  store i64 %50, ptr @shuffleSelect, align 8
  ret void
}

; Function Attrs: nounwind uwtable
define i64 @Cudd_Random() #0 {
  %1 = alloca i32, align 4
  %2 = alloca i64, align 8
  %3 = load i64, ptr @cuddRand, align 8
  %4 = icmp eq i64 %3, 0
  br i1 %4, label %5, label %6

5:                                                ; preds = %0
  call void @Cudd_Srandom(i64 noundef 1)
  br label %6

6:                                                ; preds = %5, %0
  %7 = load i64, ptr @cuddRand, align 8
  %8 = sdiv i64 %7, 53668
  store i64 %8, ptr %2, align 8
  %9 = load i64, ptr @cuddRand, align 8
  %10 = load i64, ptr %2, align 8
  %11 = mul nsw i64 %10, 53668
  %12 = sub nsw i64 %9, %11
  %13 = mul nsw i64 40014, %12
  %14 = load i64, ptr %2, align 8
  %15 = mul nsw i64 %14, 12211
  %16 = sub nsw i64 %13, %15
  store i64 %16, ptr @cuddRand, align 8
  %17 = load i64, ptr @cuddRand, align 8
  %18 = icmp slt i64 %17, 0
  %19 = zext i1 %18 to i32
  %20 = mul nsw i32 %19, 2147483563
  %21 = sext i32 %20 to i64
  %22 = load i64, ptr @cuddRand, align 8
  %23 = add nsw i64 %22, %21
  store i64 %23, ptr @cuddRand, align 8
  %24 = load i64, ptr @cuddRand2, align 8
  %25 = sdiv i64 %24, 52774
  store i64 %25, ptr %2, align 8
  %26 = load i64, ptr @cuddRand2, align 8
  %27 = load i64, ptr %2, align 8
  %28 = mul nsw i64 %27, 52774
  %29 = sub nsw i64 %26, %28
  %30 = mul nsw i64 40692, %29
  %31 = load i64, ptr %2, align 8
  %32 = mul nsw i64 %31, 3791
  %33 = sub nsw i64 %30, %32
  store i64 %33, ptr @cuddRand2, align 8
  %34 = load i64, ptr @cuddRand2, align 8
  %35 = icmp slt i64 %34, 0
  %36 = zext i1 %35 to i32
  %37 = mul nsw i32 %36, 2147483399
  %38 = sext i32 %37 to i64
  %39 = load i64, ptr @cuddRand2, align 8
  %40 = add nsw i64 %39, %38
  store i64 %40, ptr @cuddRand2, align 8
  %41 = load i64, ptr @shuffleSelect, align 8
  %42 = sdiv i64 %41, 33554431
  %43 = trunc i64 %42 to i32
  store i32 %43, ptr %1, align 4
  %44 = load i32, ptr %1, align 4
  %45 = sext i32 %44 to i64
  %46 = getelementptr inbounds [64 x i64], ptr @shuffleTable, i64 0, i64 %45
  %47 = load i64, ptr %46, align 8
  %48 = load i64, ptr @cuddRand2, align 8
  %49 = sub nsw i64 %47, %48
  store i64 %49, ptr @shuffleSelect, align 8
  %50 = load i64, ptr @cuddRand, align 8
  %51 = load i32, ptr %1, align 4
  %52 = sext i32 %51 to i64
  %53 = getelementptr inbounds [64 x i64], ptr @shuffleTable, i64 0, i64 %52
  store i64 %50, ptr %53, align 8
  %54 = load i64, ptr @shuffleSelect, align 8
  %55 = icmp slt i64 %54, 1
  %56 = zext i1 %55 to i32
  %57 = mul nsw i32 %56, 2147483562
  %58 = sext i32 %57 to i64
  %59 = load i64, ptr @shuffleSelect, align 8
  %60 = add nsw i64 %59, %58
  store i64 %60, ptr @shuffleSelect, align 8
  %61 = load i64, ptr @shuffleSelect, align 8
  %62 = sub nsw i64 %61, 1
  ret i64 %62
}

; Function Attrs: nounwind uwtable
define ptr @Cudd_bddPickOneMinterm(ptr noundef %0, ptr noundef %1, ptr noundef %2, i32 noundef %3) #0 {
  %5 = alloca ptr, align 8
  %6 = alloca ptr, align 8
  %7 = alloca ptr, align 8
  %8 = alloca ptr, align 8
  %9 = alloca i32, align 4
  %10 = alloca ptr, align 8
  %11 = alloca i32, align 4
  %12 = alloca i32, align 4
  %13 = alloca ptr, align 8
  %14 = alloca i32, align 4
  %15 = alloca ptr, align 8
  %16 = alloca ptr, align 8
  store ptr %0, ptr %6, align 8
  store ptr %1, ptr %7, align 8
  store ptr %2, ptr %8, align 8
  store i32 %3, ptr %9, align 4
  %17 = load ptr, ptr %6, align 8
  %18 = getelementptr inbounds %struct.DdManager, ptr %17, i32 0, i32 15
  %19 = load i32, ptr %18, align 8
  store i32 %19, ptr %12, align 4
  %20 = load i32, ptr %12, align 4
  %21 = sext i32 %20 to i64
  %22 = mul i64 1, %21
  %23 = call noalias ptr @malloc(i64 noundef %22) #5
  store ptr %23, ptr %10, align 8
  %24 = load ptr, ptr %10, align 8
  %25 = icmp eq ptr %24, null
  br i1 %25, label %26, label %29

26:                                               ; preds = %4
  %27 = load ptr, ptr %6, align 8
  %28 = getelementptr inbounds %struct.DdManager, ptr %27, i32 0, i32 86
  store i32 1, ptr %28, align 8
  store ptr null, ptr %5, align 8
  br label %211

29:                                               ; preds = %4
  %30 = load i32, ptr %9, align 4
  %31 = sext i32 %30 to i64
  %32 = mul i64 4, %31
  %33 = call noalias ptr @malloc(i64 noundef %32) #5
  store ptr %33, ptr %13, align 8
  %34 = load ptr, ptr %13, align 8
  %35 = icmp eq ptr %34, null
  br i1 %35, label %36, label %45

36:                                               ; preds = %29
  %37 = load ptr, ptr %6, align 8
  %38 = getelementptr inbounds %struct.DdManager, ptr %37, i32 0, i32 86
  store i32 1, ptr %38, align 8
  %39 = load ptr, ptr %10, align 8
  %40 = icmp ne ptr %39, null
  br i1 %40, label %41, label %43

41:                                               ; preds = %36
  %42 = load ptr, ptr %10, align 8
  call void @free(ptr noundef %42) #6
  store ptr null, ptr %10, align 8
  br label %44

43:                                               ; preds = %36
  br label %44

44:                                               ; preds = %43, %41
  store ptr null, ptr %5, align 8
  br label %211

45:                                               ; preds = %29
  store i32 0, ptr %11, align 4
  br label %46

46:                                               ; preds = %62, %45
  %47 = load i32, ptr %11, align 4
  %48 = load i32, ptr %9, align 4
  %49 = icmp slt i32 %47, %48
  br i1 %49, label %50, label %65

50:                                               ; preds = %46
  %51 = load ptr, ptr %8, align 8
  %52 = load i32, ptr %11, align 4
  %53 = sext i32 %52 to i64
  %54 = getelementptr inbounds ptr, ptr %51, i64 %53
  %55 = load ptr, ptr %54, align 8
  %56 = getelementptr inbounds %struct.DdNode, ptr %55, i32 0, i32 0
  %57 = load i32, ptr %56, align 8
  %58 = load ptr, ptr %13, align 8
  %59 = load i32, ptr %11, align 4
  %60 = sext i32 %59 to i64
  %61 = getelementptr inbounds i32, ptr %58, i64 %60
  store i32 %57, ptr %61, align 4
  br label %62

62:                                               ; preds = %50
  %63 = load i32, ptr %11, align 4
  %64 = add nsw i32 %63, 1
  store i32 %64, ptr %11, align 4
  br label %46, !llvm.loop !33

65:                                               ; preds = %46
  %66 = load ptr, ptr %6, align 8
  %67 = load ptr, ptr %7, align 8
  %68 = load ptr, ptr %10, align 8
  %69 = call i32 @Cudd_bddPickOneCube(ptr noundef %66, ptr noundef %67, ptr noundef %68)
  store i32 %69, ptr %14, align 4
  %70 = load i32, ptr %14, align 4
  %71 = icmp eq i32 %70, 0
  br i1 %71, label %72, label %85

72:                                               ; preds = %65
  %73 = load ptr, ptr %10, align 8
  %74 = icmp ne ptr %73, null
  br i1 %74, label %75, label %77

75:                                               ; preds = %72
  %76 = load ptr, ptr %10, align 8
  call void @free(ptr noundef %76) #6
  store ptr null, ptr %10, align 8
  br label %78

77:                                               ; preds = %72
  br label %78

78:                                               ; preds = %77, %75
  %79 = load ptr, ptr %13, align 8
  %80 = icmp ne ptr %79, null
  br i1 %80, label %81, label %83

81:                                               ; preds = %78
  %82 = load ptr, ptr %13, align 8
  call void @free(ptr noundef %82) #6
  store ptr null, ptr %13, align 8
  br label %84

83:                                               ; preds = %78
  br label %84

84:                                               ; preds = %83, %81
  store ptr null, ptr %5, align 8
  br label %211

85:                                               ; preds = %65
  store i32 0, ptr %11, align 4
  br label %86

86:                                               ; preds = %116, %85
  %87 = load i32, ptr %11, align 4
  %88 = load i32, ptr %9, align 4
  %89 = icmp slt i32 %87, %88
  br i1 %89, label %90, label %119

90:                                               ; preds = %86
  %91 = load ptr, ptr %10, align 8
  %92 = load ptr, ptr %13, align 8
  %93 = load i32, ptr %11, align 4
  %94 = sext i32 %93 to i64
  %95 = getelementptr inbounds i32, ptr %92, i64 %94
  %96 = load i32, ptr %95, align 4
  %97 = sext i32 %96 to i64
  %98 = getelementptr inbounds i8, ptr %91, i64 %97
  %99 = load i8, ptr %98, align 1
  %100 = sext i8 %99 to i32
  %101 = icmp eq i32 %100, 2
  br i1 %101, label %102, label %115

102:                                              ; preds = %90
  %103 = call i64 @Cudd_Random()
  %104 = and i64 %103, 32
  %105 = ashr i64 %104, 5
  %106 = trunc i64 %105 to i8
  %107 = load ptr, ptr %10, align 8
  %108 = load ptr, ptr %13, align 8
  %109 = load i32, ptr %11, align 4
  %110 = sext i32 %109 to i64
  %111 = getelementptr inbounds i32, ptr %108, i64 %110
  %112 = load i32, ptr %111, align 4
  %113 = sext i32 %112 to i64
  %114 = getelementptr inbounds i8, ptr %107, i64 %113
  store i8 %106, ptr %114, align 1
  br label %115

115:                                              ; preds = %102, %90
  br label %116

116:                                              ; preds = %115
  %117 = load i32, ptr %11, align 4
  %118 = add nsw i32 %117, 1
  store i32 %118, ptr %11, align 4
  br label %86, !llvm.loop !34

119:                                              ; preds = %86
  %120 = load ptr, ptr %6, align 8
  %121 = call ptr @Cudd_ReadOne(ptr noundef %120)
  store ptr %121, ptr %15, align 8
  %122 = load ptr, ptr %15, align 8
  %123 = ptrtoint ptr %122 to i64
  %124 = and i64 %123, -2
  %125 = inttoptr i64 %124 to ptr
  %126 = getelementptr inbounds %struct.DdNode, ptr %125, i32 0, i32 1
  %127 = load i32, ptr %126, align 4
  %128 = add i32 %127, 1
  store i32 %128, ptr %126, align 4
  %129 = load i32, ptr %9, align 4
  %130 = sub nsw i32 %129, 1
  store i32 %130, ptr %11, align 4
  br label %131

131:                                              ; preds = %187, %119
  %132 = load i32, ptr %11, align 4
  %133 = icmp sge i32 %132, 0
  br i1 %133, label %134, label %190

134:                                              ; preds = %131
  %135 = load ptr, ptr %6, align 8
  %136 = load ptr, ptr %15, align 8
  %137 = load ptr, ptr %8, align 8
  %138 = load i32, ptr %11, align 4
  %139 = sext i32 %138 to i64
  %140 = getelementptr inbounds ptr, ptr %137, i64 %139
  %141 = load ptr, ptr %140, align 8
  %142 = ptrtoint ptr %141 to i64
  %143 = load ptr, ptr %10, align 8
  %144 = load ptr, ptr %13, align 8
  %145 = load i32, ptr %11, align 4
  %146 = sext i32 %145 to i64
  %147 = getelementptr inbounds i32, ptr %144, i64 %146
  %148 = load i32, ptr %147, align 4
  %149 = sext i32 %148 to i64
  %150 = getelementptr inbounds i8, ptr %143, i64 %149
  %151 = load i8, ptr %150, align 1
  %152 = sext i8 %151 to i32
  %153 = icmp eq i32 %152, 0
  %154 = zext i1 %153 to i32
  %155 = sext i32 %154 to i64
  %156 = xor i64 %142, %155
  %157 = inttoptr i64 %156 to ptr
  %158 = call ptr @Cudd_bddAnd(ptr noundef %135, ptr noundef %136, ptr noundef %157)
  store ptr %158, ptr %16, align 8
  %159 = load ptr, ptr %16, align 8
  %160 = icmp eq ptr %159, null
  br i1 %160, label %161, label %176

161:                                              ; preds = %134
  %162 = load ptr, ptr %10, align 8
  %163 = icmp ne ptr %162, null
  br i1 %163, label %164, label %166

164:                                              ; preds = %161
  %165 = load ptr, ptr %10, align 8
  call void @free(ptr noundef %165) #6
  store ptr null, ptr %10, align 8
  br label %167

166:                                              ; preds = %161
  br label %167

167:                                              ; preds = %166, %164
  %168 = load ptr, ptr %13, align 8
  %169 = icmp ne ptr %168, null
  br i1 %169, label %170, label %172

170:                                              ; preds = %167
  %171 = load ptr, ptr %13, align 8
  call void @free(ptr noundef %171) #6
  store ptr null, ptr %13, align 8
  br label %173

172:                                              ; preds = %167
  br label %173

173:                                              ; preds = %172, %170
  %174 = load ptr, ptr %6, align 8
  %175 = load ptr, ptr %15, align 8
  call void @Cudd_RecursiveDeref(ptr noundef %174, ptr noundef %175)
  store ptr null, ptr %5, align 8
  br label %211

176:                                              ; preds = %134
  %177 = load ptr, ptr %16, align 8
  %178 = ptrtoint ptr %177 to i64
  %179 = and i64 %178, -2
  %180 = inttoptr i64 %179 to ptr
  %181 = getelementptr inbounds %struct.DdNode, ptr %180, i32 0, i32 1
  %182 = load i32, ptr %181, align 4
  %183 = add i32 %182, 1
  store i32 %183, ptr %181, align 4
  %184 = load ptr, ptr %6, align 8
  %185 = load ptr, ptr %15, align 8
  call void @Cudd_RecursiveDeref(ptr noundef %184, ptr noundef %185)
  %186 = load ptr, ptr %16, align 8
  store ptr %186, ptr %15, align 8
  br label %187

187:                                              ; preds = %176
  %188 = load i32, ptr %11, align 4
  %189 = add nsw i32 %188, -1
  store i32 %189, ptr %11, align 4
  br label %131, !llvm.loop !35

190:                                              ; preds = %131
  %191 = load ptr, ptr %15, align 8
  %192 = ptrtoint ptr %191 to i64
  %193 = and i64 %192, -2
  %194 = inttoptr i64 %193 to ptr
  %195 = getelementptr inbounds %struct.DdNode, ptr %194, i32 0, i32 1
  %196 = load i32, ptr %195, align 4
  %197 = add i32 %196, -1
  store i32 %197, ptr %195, align 4
  %198 = load ptr, ptr %10, align 8
  %199 = icmp ne ptr %198, null
  br i1 %199, label %200, label %202

200:                                              ; preds = %190
  %201 = load ptr, ptr %10, align 8
  call void @free(ptr noundef %201) #6
  store ptr null, ptr %10, align 8
  br label %203

202:                                              ; preds = %190
  br label %203

203:                                              ; preds = %202, %200
  %204 = load ptr, ptr %13, align 8
  %205 = icmp ne ptr %204, null
  br i1 %205, label %206, label %208

206:                                              ; preds = %203
  %207 = load ptr, ptr %13, align 8
  call void @free(ptr noundef %207) #6
  store ptr null, ptr %13, align 8
  br label %209

208:                                              ; preds = %203
  br label %209

209:                                              ; preds = %208, %206
  %210 = load ptr, ptr %15, align 8
  store ptr %210, ptr %5, align 8
  br label %211

211:                                              ; preds = %209, %173, %84, %44, %26
  %212 = load ptr, ptr %5, align 8
  ret ptr %212
}