; Function Attrs: nounwind uwtable
define ptr @Cudd_bddPickOneMinterm(ptr noundef %0, ptr noundef %1, ptr noundef readonly captures(none) %2, i32 noundef %3) local_unnamed_addr #0 {
  %5 = getelementptr inbounds nuw i8, ptr %0, i64 136
  %6 = load i32, ptr %5, align 8
  %7 = sext i32 %6 to i64
  %8 = tail call noalias ptr @malloc(i64 noundef %7) #22
  %9 = icmp eq ptr %8, null
  br i1 %9, label %10, label %12

10:                                               ; preds = %4
  %11 = getelementptr inbounds nuw i8, ptr %0, i64 624
  store i32 1, ptr %11, align 8
  br label %113

12:                                               ; preds = %4
  %13 = sext i32 %3 to i64
  %14 = shl nsw i64 %13, 2
  %15 = tail call noalias ptr @malloc(i64 noundef %14) #22
  %16 = icmp eq ptr %15, null
  br i1 %16, label %18, label %.preheader69

.preheader69:                                     ; preds = %12
  %17 = icmp sgt i32 %3, 0
  br i1 %17, label %.lr.ph.preheader, label %._crit_edge.thread

.lr.ph.preheader:                                 ; preds = %.preheader69
  %wide.trip.count = zext nneg i32 %3 to i64
  br label %.lr.ph

18:                                               ; preds = %12
  %19 = getelementptr inbounds nuw i8, ptr %0, i64 624
  store i32 1, ptr %19, align 8
  tail call void @free(ptr noundef nonnull %8) #23
  br label %113

.lr.ph:                                           ; preds = %.lr.ph.preheader, %.lr.ph
  %indvars.iv = phi i64 [ 0, %.lr.ph.preheader ], [ %indvars.iv.next, %.lr.ph ]
  %20 = getelementptr inbounds nuw ptr, ptr %2, i64 %indvars.iv
  %21 = load ptr, ptr %20, align 8
  %22 = load i32, ptr %21, align 8
  %23 = getelementptr inbounds nuw i32, ptr %15, i64 %indvars.iv
  store i32 %22, ptr %23, align 4
  %indvars.iv.next = add nuw nsw i64 %indvars.iv, 1
  %exitcond.not = icmp eq i64 %indvars.iv.next, %wide.trip.count
  br i1 %exitcond.not, label %._crit_edge, label %.lr.ph, !llvm.loop !29

._crit_edge:                                      ; preds = %.lr.ph
  %24 = tail call i32 @Cudd_bddPickOneCube(ptr noundef %0, ptr noundef %1, ptr noundef nonnull %8)
  %25 = icmp eq i32 %24, 0
  br i1 %25, label %28, label %.lr.ph73.preheader

._crit_edge.thread:                               ; preds = %.preheader69
  %26 = tail call i32 @Cudd_bddPickOneCube(ptr noundef nonnull %0, ptr noundef %1, ptr noundef nonnull %8)
  %27 = icmp eq i32 %26, 0
  br i1 %27, label %28, label %._crit_edge74

.lr.ph73.preheader:                               ; preds = %._crit_edge
  %cuddRand2.promoted = load i64, ptr @cuddRand2, align 8
  %cuddRand.promoted = load i64, ptr @cuddRand, align 8
  %wide.trip.count87 = zext nneg i32 %3 to i64
  br label %.lr.ph73

28:                                               ; preds = %._crit_edge.thread, %._crit_edge
  tail call void @free(ptr noundef nonnull %8) #23
  tail call void @free(ptr noundef nonnull %15) #23
  br label %113

.lr.ph73:                                         ; preds = %.lr.ph73.preheader, %76
  %indvars.iv84 = phi i64 [ 0, %.lr.ph73.preheader ], [ %indvars.iv.next85, %76 ]
  %29 = phi i64 [ %cuddRand.promoted, %.lr.ph73.preheader ], [ %78, %76 ]
  %30 = phi i64 [ %cuddRand2.promoted, %.lr.ph73.preheader ], [ %77, %76 ]
  %31 = getelementptr inbounds nuw i32, ptr %15, i64 %indvars.iv84
  %32 = load i32, ptr %31, align 4
  %33 = sext i32 %32 to i64
  %34 = getelementptr inbounds i8, ptr %8, i64 %33
  %35 = load i8, ptr %34, align 1
  %36 = icmp eq i8 %35, 2
  br i1 %36, label %37, label %76

37:                                               ; preds = %.lr.ph73
  %38 = icmp eq i64 %29, 0
  br i1 %38, label %.preheader, label %Cudd_Random.exit

.preheader:                                       ; preds = %37, %.preheader
  %.011.i.i = phi i32 [ %49, %.preheader ], [ 0, %37 ]
  %39 = phi i64 [ %45, %.preheader ], [ 1, %37 ]
  %40 = sdiv i64 %39, 53668
  %.neg.i.i = mul nsw i64 %40, -53668
  %41 = add i64 %.neg.i.i, %39
  %42 = mul nsw i64 %41, 40014
  %.neg10.i.i = mul nsw i64 %40, -12211
  %43 = add i64 %42, %.neg10.i.i
  %isneg.i.i = icmp slt i64 %43, 0
  %44 = select i1 %isneg.i.i, i64 2147483563, i64 0
  %45 = add nsw i64 %44, %43
  %46 = and i32 %.011.i.i, 63
  %47 = zext nneg i32 %46 to i64
  %48 = getelementptr inbounds nuw [64 x i64], ptr @shuffleTable, i64 0, i64 %47
  store i64 %45, ptr %48, align 8
  %49 = add nuw nsw i32 %.011.i.i, 1
  %exitcond.not.i.i = icmp eq i32 %49, 75
  br i1 %exitcond.not.i.i, label %Cudd_Random.exit, label %.preheader, !llvm.loop !28

Cudd_Random.exit:                                 ; preds = %.preheader, %37
  %.in.i = phi ptr [ @shuffleSelect, %37 ], [ getelementptr inbounds nuw (i8, ptr @shuffleTable, i64 8), %.preheader ]
  %50 = phi i64 [ %30, %37 ], [ 1, %.preheader ]
  %51 = phi i64 [ %29, %37 ], [ 477372060, %.preheader ]
  %52 = load i64, ptr %.in.i, align 8
  %53 = sdiv i64 %51, 53668
  %.neg.i = mul nsw i64 %53, -53668
  %54 = add i64 %.neg.i, %51
  %55 = mul nsw i64 %54, 40014
  %.neg6.i = mul nsw i64 %53, -12211
  %56 = add i64 %55, %.neg6.i
  %isneg.i = icmp slt i64 %56, 0
  %57 = select i1 %isneg.i, i64 2147483563, i64 0
  %58 = add nsw i64 %57, %56
  store i64 %58, ptr @cuddRand, align 8
  %59 = sdiv i64 %50, 52774
  %.neg7.i = mul nsw i64 %59, -52774
  %60 = add i64 %.neg7.i, %50
  %61 = mul nsw i64 %60, 40692
  %.neg8.i = mul nsw i64 %59, -3791
  %62 = add i64 %61, %.neg8.i
  %isneg9.i = icmp slt i64 %62, 0
  %63 = select i1 %isneg9.i, i64 2147483399, i64 0
  %64 = add nsw i64 %63, %62
  store i64 %64, ptr @cuddRand2, align 8
  %65 = sdiv i64 %52, 33554431
  %sext.i = shl i64 %65, 32
  %66 = ashr exact i64 %sext.i, 32
  %67 = getelementptr inbounds [64 x i64], ptr @shuffleTable, i64 0, i64 %66
  %68 = load i64, ptr %67, align 8
  %69 = sub nsw i64 %68, %64
  store i64 %58, ptr %67, align 8
  %.inv.i = icmp sgt i64 %69, 0
  %70 = select i1 %.inv.i, i64 0, i64 2147483562
  %71 = add nsw i64 %70, %69
  store i64 %71, ptr @shuffleSelect, align 8
  %72 = trunc i64 %71 to i8
  %73 = add i8 %72, 63
  %74 = lshr i8 %73, 5
  %75 = and i8 %74, 1
  store i8 %75, ptr %34, align 1
  br label %76

76:                                               ; preds = %.lr.ph73, %Cudd_Random.exit
  %77 = phi i64 [ %30, %.lr.ph73 ], [ %64, %Cudd_Random.exit ]
  %78 = phi i64 [ %29, %.lr.ph73 ], [ %58, %Cudd_Random.exit ]
  %indvars.iv.next85 = add nuw nsw i64 %indvars.iv84, 1
  %exitcond88.not = icmp eq i64 %indvars.iv.next85, %wide.trip.count87
  br i1 %exitcond88.not, label %._crit_edge74, label %.lr.ph73, !llvm.loop !30

._crit_edge74:                                    ; preds = %76, %._crit_edge.thread
  %79 = tail call ptr @Cudd_ReadOne(ptr noundef %0) #23
  %80 = ptrtoint ptr %79 to i64
  %81 = and i64 %80, -2
  %82 = inttoptr i64 %81 to ptr
  %83 = getelementptr inbounds nuw i8, ptr %82, i64 4
  %84 = load i32, ptr %83, align 4
  %85 = add i32 %84, 1
  store i32 %85, ptr %83, align 4
  br i1 %17, label %.lr.ph79.preheader, label %._crit_edge80

.lr.ph79.preheader:                               ; preds = %._crit_edge74
  %86 = zext nneg i32 %3 to i64
  br label %.lr.ph79

.lr.ph79:                                         ; preds = %.lr.ph79.preheader, %102
  %indvars.iv89 = phi i64 [ %86, %.lr.ph79.preheader ], [ %indvars.iv.next90, %102 ]
  %.06276 = phi ptr [ %79, %.lr.ph79.preheader ], [ %99, %102 ]
  %indvars.iv.next90 = add nsw i64 %indvars.iv89, -1
  %87 = getelementptr inbounds nuw ptr, ptr %2, i64 %indvars.iv.next90
  %88 = load ptr, ptr %87, align 8
  %89 = ptrtoint ptr %88 to i64
  %90 = getelementptr inbounds nuw i32, ptr %15, i64 %indvars.iv.next90
  %91 = load i32, ptr %90, align 4
  %92 = sext i32 %91 to i64
  %93 = getelementptr inbounds i8, ptr %8, i64 %92
  %94 = load i8, ptr %93, align 1
  %95 = icmp eq i8 %94, 0
  %96 = zext i1 %95 to i64
  %97 = xor i64 %96, %89
  %98 = inttoptr i64 %97 to ptr
  %99 = tail call ptr @Cudd_bddAnd(ptr noundef %0, ptr noundef %.06276, ptr noundef %98) #23
  %100 = icmp eq ptr %99, null
  br i1 %100, label %101, label %102

101:                                              ; preds = %.lr.ph79
  tail call void @free(ptr noundef nonnull %8) #23
  tail call void @free(ptr noundef nonnull %15) #23
  tail call void @Cudd_RecursiveDeref(ptr noundef %0, ptr noundef %.06276) #23
  br label %113

102:                                              ; preds = %.lr.ph79
  %103 = ptrtoint ptr %99 to i64
  %104 = and i64 %103, -2
  %105 = inttoptr i64 %104 to ptr
  %106 = getelementptr inbounds nuw i8, ptr %105, i64 4
  %107 = load i32, ptr %106, align 4
  %108 = add i32 %107, 1
  store i32 %108, ptr %106, align 4
  tail call void @Cudd_RecursiveDeref(ptr noundef %0, ptr noundef %.06276) #23
  %109 = icmp samesign ugt i64 %indvars.iv89, 1
  br i1 %109, label %.lr.ph79, label %._crit_edge80, !llvm.loop !31

._crit_edge80:                                    ; preds = %102, %._crit_edge74
  %.pre-phi93 = phi ptr [ %82, %._crit_edge74 ], [ %105, %102 ]
  %.062.lcssa = phi ptr [ %79, %._crit_edge74 ], [ %99, %102 ]
  %110 = getelementptr inbounds nuw i8, ptr %.pre-phi93, i64 4
  %111 = load i32, ptr %110, align 4
  %112 = add i32 %111, -1
  store i32 %112, ptr %110, align 4
  tail call void @free(ptr noundef nonnull %8) #23
  tail call void @free(ptr noundef %15) #23
  br label %113

113:                                              ; preds = %._crit_edge80, %101, %28, %18, %10
  %.0 = phi ptr [ null, %10 ], [ null, %18 ], [ null, %28 ], [ null, %101 ], [ %.062.lcssa, %._crit_edge80 ]
  ret ptr %.0
}